; Function Attrs: nounwind uwtable
define range(i32 -1, 1) i32 @H5AC_get_tag(ptr noundef %0, ptr noundef %1) local_unnamed_addr #4 {
  %3 = load i8, ptr @H5AC_init_g, align 1, !tbaa !3, !range !7, !noundef !8
  %4 = trunc nuw i8 %3 to i1
  %5 = load i8, ptr @H5_libterm_g, align 1, !range !7
  %6 = trunc nuw i8 %5 to i1
  %7 = select i1 %4, i1 true, i1 %6
  br i1 %7, label %8, label %.thread, !prof !9

.thread:                                          ; preds = %2
  store i8 1, ptr @H5AC_init_g, align 1, !tbaa !3
  br label %11

8:                                                ; preds = %2
  %9 = xor i1 %6, true
  %10 = select i1 %4, i1 true, i1 %9
  br i1 %10, label %11, label %18, !prof !41

11:                                               ; preds = %.thread, %8
  %12 = tail call i32 @H5C_get_tag(ptr noundef %0, ptr noundef %1) #8
  %13 = icmp slt i32 %12, 0
  br i1 %13, label %14, label %18

14:                                               ; preds = %11
  %15 = load i64, ptr @H5E_CACHE_g, align 8, !tbaa !42
  %16 = load i64, ptr @H5E_CANTTAG_g, align 8, !tbaa !42
  %17 = tail call i32 (ptr, ptr, i32, i64, i64, ptr, ...) @H5E_printf_stack(ptr noundef nonnull @.str, ptr noundef nonnull @__func__.H5AC_get_tag, i32 noundef 2305, i64 noundef %15, i64 noundef %16, ptr noundef nonnull @.str.64) #8
  br label %18

18:                                               ; preds = %14, %11, %8
  %.0 = phi i32 [ -1, %14 ], [ 0, %11 ], [ 0, %8 ]
  ret i32 %.0
}